; Function Attrs: mustprogress uwtable
define void @_ZN8LightGBM8Metadata12InsertLabelsEPKfii(ptr noundef nonnull align 8 dereferenceable(300) %0, ptr noundef readonly %1, i32 noundef %2, i32 noundef %3) local_unnamed_addr #8 align 2 personality ptr @__gxx_personality_v0 {
  %5 = icmp eq ptr %1, null
  br i1 %5, label %6, label %7

6:                                                ; preds = %4
  tail call void (ptr, ...) @_ZN8LightGBM3Log5FatalEPKcz(ptr noundef nonnull @.str.29)
  br label %7

7:                                                ; preds = %6, %4
  %8 = add nsw i32 %3, %2
  %9 = getelementptr inbounds nuw i8, ptr %0, i64 32
  %10 = load i32, ptr %9, align 8, !tbaa !40
  %11 = icmp sgt i32 %8, %10
  br i1 %11, label %12, label %13

12:                                               ; preds = %7
  tail call void (ptr, ...) @_ZN8LightGBM3Log5FatalEPKcz(ptr noundef nonnull @.str.31)
  br label %13

13:                                               ; preds = %12, %7
  %14 = getelementptr inbounds nuw i8, ptr %0, i64 48
  %15 = load ptr, ptr %14, align 8, !tbaa !99
  %16 = getelementptr inbounds nuw i8, ptr %0, i64 56
  %17 = load ptr, ptr %16, align 8, !tbaa !99
  %18 = icmp eq ptr %15, %17
  br i1 %18, label %19, label %_ZNSt6vectorIfSaIfEE6resizeEm.exit

19:                                               ; preds = %13
  %20 = load i32, ptr %9, align 8, !tbaa !40
  %.not = icmp eq i32 %20, 0
  br i1 %.not, label %_ZNSt6vectorIfSaIfEE6resizeEm.exit, label %21

21:                                               ; preds = %19
  %22 = sext i32 %20 to i64
  tail call void @_ZNSt6vectorIfSaIfEE17_M_default_appendEm(ptr noundef nonnull align 8 dereferenceable(24) %14, i64 noundef %22)
  %.pre = load ptr, ptr %14, align 8, !tbaa !70
  br label %_ZNSt6vectorIfSaIfEE6resizeEm.exit

_ZNSt6vectorIfSaIfEE6resizeEm.exit:               ; preds = %19, %21, %13
  %23 = phi ptr [ %.pre, %21 ], [ %15, %13 ], [ %15, %19 ]
  %24 = sext i32 %2 to i64
  %25 = getelementptr inbounds float, ptr %23, i64 %24
  %26 = sext i32 %3 to i64
  %27 = shl nsw i64 %26, 2
  tail call void @llvm.memcpy.p0.p0.i64(ptr align 4 %25, ptr align 4 %1, i64 %27, i1 false)
  ret void
}